target datalayout = "e-m:e-p270:32:32-p271:32:32-p272:64:64-i64:64-i128:128-f80:128-n8:16:32:64-S128"
target triple = "x86_64-pc-linux-gnu"

%struct.darktable_t = type { %struct.dt_codepath_t, i32, i32, ptr, ptr, ptr, ptr, ptr, ptr, ptr, ptr, ptr, ptr, ptr, ptr, ptr, ptr, ptr, ptr, ptr, ptr, ptr, ptr, ptr, ptr, ptr, ptr, ptr, ptr, ptr, [64 x %struct.dt_pthread_mutex_t], %struct.dt_pthread_mutex_t, %struct.dt_pthread_mutex_t, %struct.dt_pthread_mutex_t, %struct.dt_pthread_mutex_t, %struct.dt_pthread_mutex_t, ptr, ptr, ptr, ptr, ptr, ptr, ptr, ptr, ptr, ptr, ptr, ptr, ptr, %struct.dt_lua_state_t, ptr, double, ptr, i32, [47 x i32], i32, i32, ptr, ptr, %struct.dt_sys_resources_t, %struct.dt_backthumb_t, %struct.dt_gimp_t }
%struct.dt_codepath_t = type { i8, [3 x i8] }
%struct.dt_pthread_mutex_t = type { %union.pthread_mutex_t }
%union.pthread_mutex_t = type { %struct.__pthread_mutex_s }
%struct.__pthread_mutex_s = type { i32, i32, i32, i32, i32, i16, i16, %struct.__pthread_internal_list }
%struct.__pthread_internal_list = type { ptr, ptr }
%struct.dt_lua_state_t = type { i32 }
%struct.dt_sys_resources_t = type { i64, i64, ptr, ptr, i32 }
%struct.dt_backthumb_t = type { double, double, i32, i32, i32, i32 }
%struct.dt_gimp_t = type { i32, ptr, ptr, i32, i32 }
%struct.dt_gui_gtk_t = type { ptr, %struct.dt_gui_widgets_t, %struct.dt_gui_scrollbars_t, i32, ptr, i32, [39 x %struct._GdkRGBA], i32, i32, i32, i32, i32, double, double, double, double, ptr, double, double, double, double, i32, i32, [4096 x i8], i32, i32, i32, %struct.dt_pthread_mutex_t }
%struct.dt_gui_widgets_t = type { ptr, ptr, ptr, ptr, i32, i32, i32 }
%struct.dt_gui_scrollbars_t = type { ptr, ptr, i32 }
%struct._GdkRGBA = type { double, double, double, double }
%struct._PangoRectangle = type { i32, i32, i32, i32 }
%struct.dt_bauhaus_t = type { ptr, %struct.dt_bauhaus_popup_t, ptr, float, float, i32, i32, float, [180 x i8], i32, i32, [2 x i32], i32, ptr, ptr, float, float, float, float, float, ptr, ptr, i32, i32, i32, %struct._GdkRGBA, %struct._GdkRGBA, %struct._GdkRGBA, %struct._GdkRGBA, %struct._GdkRGBA, %struct._GdkRGBA, %struct._GdkRGBA, %struct._GdkRGBA, %struct._GdkRGBA, %struct._GdkRGBA, %struct._GdkRGBA, %struct._GdkRGBA, %struct._GdkRGBA, %struct._GdkRGBA, %struct._GdkRGBA, [3 x %struct._GdkRGBA], [5 x %struct._GdkRGBA] }
%struct.dt_bauhaus_popup_t = type { ptr, ptr, %struct._GtkBorder, %struct._cairo_rectangle_int, i32, i32, i32 }
%struct._GtkBorder = type { i16, i16, i16, i16 }
%struct._cairo_rectangle_int = type { i32, i32, i32, i32 }

@darktable = external global %struct.darktable_t, align 8
@.str.35 = private unnamed_addr constant [11 x i8] c"working...\00", align 1
@.str.36 = private unnamed_addr constant [4 x i8] c"...\00", align 1

; Function Attrs: nounwind uwtable
define void @dt_control_draw_busy_msg(ptr noundef %0, i32 noundef %1, i32 noundef %2) #0 {
  %4 = alloca ptr, align 8
  %5 = alloca i32, align 4
  %6 = alloca i32, align 4
  %7 = alloca %struct._PangoRectangle, align 4
  %8 = alloca ptr, align 8
  %9 = alloca ptr, align 8
  %10 = alloca float, align 4
  %11 = alloca double, align 8
  %12 = alloca double, align 8
  %13 = alloca double, align 8
  store ptr %0, ptr %4, align 8, !tbaa !143
  store i32 %1, ptr %5, align 4, !tbaa !10
  store i32 %2, ptr %6, align 4, !tbaa !10
  call void @llvm.lifetime.start.p0(i64 16, ptr %7) #10
  call void @llvm.lifetime.start.p0(i64 8, ptr %8) #10
  call void @llvm.lifetime.start.p0(i64 8, ptr %9) #10
  %14 = load ptr, ptr getelementptr inbounds nuw (%struct.darktable_t, ptr @darktable, i32 0, i32 17), align 8, !tbaa !145
  %15 = getelementptr inbounds nuw %struct.dt_bauhaus_t, ptr %14, i32 0, i32 20
  %16 = load ptr, ptr %15, align 8, !tbaa !146
  %17 = call ptr @pango_font_description_copy_static(ptr noundef %16)
  store ptr %17, ptr %9, align 8, !tbaa !155
  call void @llvm.lifetime.start.p0(i64 4, ptr %10) #10
  %18 = load ptr, ptr getelementptr inbounds nuw (%struct.darktable_t, ptr @darktable, i32 0, i32 14), align 8, !tbaa !121
  %19 = getelementptr inbounds nuw %struct.dt_gui_gtk_t, ptr %18, i32 0, i32 18
  %20 = load double, ptr %19, align 8, !tbaa !156
  %21 = fmul reassoc nsz arcp contract afn double 1.400000e+01, %20
  %22 = fptrunc reassoc nsz arcp contract afn double %21 to float
  store float %22, ptr %10, align 4, !tbaa !12
  %23 = load ptr, ptr %9, align 8, !tbaa !155
  %24 = load float, ptr %10, align 4, !tbaa !12
  %25 = fmul reassoc nsz arcp contract afn float %24, 1.024000e+03
  %26 = fpext reassoc nsz arcp contract afn float %25 to double
  call void @pango_font_description_set_absolute_size(ptr noundef %23, double noundef %26)
  %27 = load ptr, ptr %9, align 8, !tbaa !155
  call void @pango_font_description_set_weight(ptr noundef %27, i32 noundef 700)
  %28 = load ptr, ptr %4, align 8, !tbaa !143
  %29 = call ptr @pango_cairo_create_layout(ptr noundef %28)
  store ptr %29, ptr %8, align 8, !tbaa !157
  %30 = load ptr, ptr %8, align 8, !tbaa !157
  %31 = load ptr, ptr %9, align 8, !tbaa !155
  call void @pango_layout_set_font_description(ptr noundef %30, ptr noundef %31)
  %32 = load ptr, ptr %8, align 8, !tbaa !157
  %33 = call ptr @dcgettext(ptr noundef null, ptr noundef @.str.35, i32 noundef 5) #10
  call void @pango_layout_set_text(ptr noundef %32, ptr noundef %33, i32 noundef -1)
  %34 = load ptr, ptr %8, align 8, !tbaa !157
  call void @pango_layout_get_pixel_extents(ptr noundef %34, ptr noundef %7, ptr noundef null)
  %35 = getelementptr inbounds nuw %struct._PangoRectangle, ptr %7, i32 0, i32 2
  %36 = load i32, ptr %35, align 4, !tbaa !159
  %37 = sitofp i32 %36 to double
  %38 = load i32, ptr %5, align 4, !tbaa !10
  %39 = sitofp i32 %38 to double
  %40 = fmul reassoc nsz arcp contract afn double %39, 0x3FEF5C28F5C28F5C
  %41 = fcmp reassoc nsz arcp contract afn ogt double %37, %40
  br i1 %41, label %42, label %45

42:                                               ; preds = %3
  %43 = load ptr, ptr %8, align 8, !tbaa !157
  call void @pango_layout_set_text(ptr noundef %43, ptr noundef @.str.36, i32 noundef -1)
  %44 = load ptr, ptr %8, align 8, !tbaa !157
  call void @pango_layout_get_pixel_extents(ptr noundef %44, ptr noundef %7, ptr noundef null)
  br label %45

45:                                               ; preds = %42, %3
  call void @llvm.lifetime.start.p0(i64 8, ptr %11) #10
  %46 = load i32, ptr %5, align 4, !tbaa !10
  %47 = sitofp i32 %46 to double
  %48 = fdiv reassoc nsz arcp contract afn double %47, 2.000000e+00
  store double %48, ptr %11, align 8, !tbaa !161
  call void @llvm.lifetime.start.p0(i64 8, ptr %12) #10
  %49 = load i32, ptr %6, align 4, !tbaa !10
  %50 = sitofp i32 %49 to double
  %51 = fmul reassoc nsz arcp contract afn double %50, 8.500000e-01
  %52 = load ptr, ptr getelementptr inbounds nuw (%struct.darktable_t, ptr @darktable, i32 0, i32 14), align 8, !tbaa !121
  %53 = getelementptr inbounds nuw %struct.dt_gui_gtk_t, ptr %52, i32 0, i32 18
  %54 = load double, ptr %53, align 8, !tbaa !156
  %55 = fmul reassoc nsz arcp contract afn double 3.000000e+01, %54
  %56 = fsub reassoc nsz arcp contract afn double %51, %55
  store double %56, ptr %12, align 8, !tbaa !161
  call void @llvm.lifetime.start.p0(i64 8, ptr %13) #10
  %57 = getelementptr inbounds nuw %struct._PangoRectangle, ptr %7, i32 0, i32 2
  %58 = load i32, ptr %57, align 4, !tbaa !159
  %59 = sitofp i32 %58 to double
  %60 = fmul reassoc nsz arcp contract afn double %59, 5.000000e-01
  store double %60, ptr %13, align 8, !tbaa !161
  %61 = load ptr, ptr %4, align 8, !tbaa !143
  %62 = load double, ptr %11, align 8, !tbaa !161
  %63 = load double, ptr %13, align 8, !tbaa !161
  %64 = fsub reassoc nsz arcp contract afn double %62, %63
  %65 = load double, ptr %12, align 8, !tbaa !161
  %66 = load float, ptr %10, align 4, !tbaa !12
  %67 = fpext reassoc nsz arcp contract afn float %66 to double
  %68 = fmul reassoc nsz arcp contract afn double 0x3FD5555555555555, %67
  %69 = fadd reassoc nsz arcp contract afn double %65, %68
  %70 = load float, ptr %10, align 4, !tbaa !12
  %71 = fpext reassoc nsz arcp contract afn float %70 to double
  %72 = fsub reassoc nsz arcp contract afn double %69, %71
  call void @cairo_move_to(ptr noundef %61, double noundef %64, double noundef %72)
  %73 = load ptr, ptr %4, align 8, !tbaa !143
  %74 = load ptr, ptr %8, align 8, !tbaa !157
  call void @pango_cairo_layout_path(ptr noundef %73, ptr noundef %74)
  %75 = load ptr, ptr %4, align 8, !tbaa !143
  call void @cairo_set_line_width(ptr noundef %75, double noundef 2.000000e+00)
  %76 = load ptr, ptr %4, align 8, !tbaa !143
  call void @dt_gui_gtk_set_source_rgb(ptr noundef %76, i32 noundef 29)
  %77 = load ptr, ptr %4, align 8, !tbaa !143
  call void @cairo_stroke_preserve(ptr noundef %77)
  %78 = load ptr, ptr %4, align 8, !tbaa !143
  call void @dt_gui_gtk_set_source_rgb(ptr noundef %78, i32 noundef 30)
  %79 = load ptr, ptr %4, align 8, !tbaa !143
  call void @cairo_fill(ptr noundef %79)
  %80 = load ptr, ptr %9, align 8, !tbaa !155
  call void @pango_font_description_free(ptr noundef %80)
  %81 = load ptr, ptr %8, align 8, !tbaa !157
  call void @g_object_unref(ptr noundef %81)
  call void @llvm.lifetime.end.p0(i64 8, ptr %13) #10
  call void @llvm.lifetime.end.p0(i64 8, ptr %12) #10
  call void @llvm.lifetime.end.p0(i64 8, ptr %11) #10
  call void @llvm.lifetime.end.p0(i64 4, ptr %10) #10
  call void @llvm.lifetime.end.p0(i64 8, ptr %9) #10
  call void @llvm.lifetime.end.p0(i64 8, ptr %8) #10
  call void @llvm.lifetime.end.p0(i64 16, ptr %7) #10
  ret void
}