; Function Attrs: nounwind uwtable
define void @dt_control_draw_busy_msg(ptr noundef %0, i32 noundef %1, i32 noundef %2) local_unnamed_addr #0 {
  %4 = alloca %struct._PangoRectangle, align 4
  call void @llvm.lifetime.start.p0(i64 16, ptr nonnull %4) #13
  %5 = load ptr, ptr getelementptr inbounds nuw (i8, ptr @darktable, i64 128), align 8, !tbaa !124
  %6 = getelementptr inbounds nuw i8, ptr %5, i64 336
  %7 = load ptr, ptr %6, align 8, !tbaa !125
  %8 = tail call ptr @pango_font_description_copy_static(ptr noundef %7) #13
  %9 = load ptr, ptr getelementptr inbounds nuw (i8, ptr @darktable, i64 104), align 8, !tbaa !108
  %10 = getelementptr inbounds nuw i8, ptr %9, i64 1424
  %11 = load double, ptr %10, align 8, !tbaa !135
  %12 = fmul reassoc nsz arcp contract afn double %11, 1.400000e+01
  %13 = fptrunc reassoc nsz arcp contract afn double %12 to float
  %14 = fmul reassoc nsz arcp contract afn float %13, 1.024000e+03
  %15 = fpext reassoc nsz arcp contract afn float %14 to double
  tail call void @pango_font_description_set_absolute_size(ptr noundef %8, double noundef %15) #13
  tail call void @pango_font_description_set_weight(ptr noundef %8, i32 noundef 700) #13
  %16 = tail call ptr @pango_cairo_create_layout(ptr noundef %0) #13
  tail call void @pango_layout_set_font_description(ptr noundef %16, ptr noundef %8) #13
  %17 = tail call ptr @dcgettext(ptr noundef null, ptr noundef nonnull @.str.35, i32 noundef 5) #13
  tail call void @pango_layout_set_text(ptr noundef %16, ptr noundef %17, i32 noundef -1) #13
  call void @pango_layout_get_pixel_extents(ptr noundef %16, ptr noundef nonnull %4, ptr noundef null) #13
  %18 = getelementptr inbounds nuw i8, ptr %4, i64 8
  %19 = load i32, ptr %18, align 4, !tbaa !136
  %20 = sitofp i32 %19 to double
  %21 = sitofp i32 %1 to double
  %22 = fmul reassoc nsz arcp contract afn double %21, 0x3FEF5C28F5C28F5C
  %23 = fcmp reassoc nsz arcp contract afn olt double %22, %20
  br i1 %23, label %24, label %25

24:                                               ; preds = %3
  call void @pango_layout_set_text(ptr noundef %16, ptr noundef nonnull @.str.36, i32 noundef -1) #13
  call void @pango_layout_get_pixel_extents(ptr noundef %16, ptr noundef nonnull %4, ptr noundef null) #13
  %.pre = load i32, ptr %18, align 4, !tbaa !136
  %.pre29 = sitofp i32 %.pre to double
  br label %25

25:                                               ; preds = %24, %3
  %.pre-phi = phi double [ %.pre29, %24 ], [ %20, %3 ]
  %26 = sitofp i32 %2 to double
  %27 = fmul reassoc nsz arcp contract afn double %26, 8.500000e-01
  %28 = load ptr, ptr getelementptr inbounds nuw (i8, ptr @darktable, i64 104), align 8, !tbaa !108
  %29 = getelementptr inbounds nuw i8, ptr %28, i64 1424
  %30 = load double, ptr %29, align 8, !tbaa !135
  %31 = fsub reassoc nsz arcp contract afn double %21, %.pre-phi
  %32 = fmul reassoc nsz arcp contract afn double %31, 5.000000e-01
  %33 = fpext reassoc nsz arcp contract afn float %13 to double
  %.neg27 = fmul reassoc nsz arcp contract afn double %30, -3.000000e+01
  %34 = fmul reassoc nsz arcp contract afn double %33, 0xBFE5555555555556
  %35 = fadd reassoc nsz arcp contract afn double %27, %34
  %36 = fadd reassoc nsz arcp contract afn double %35, %.neg27
  call void @cairo_move_to(ptr noundef %0, double noundef %32, double noundef %36) #13
  call void @pango_cairo_layout_path(ptr noundef %0, ptr noundef %16) #13
  call void @cairo_set_line_width(ptr noundef %0, double noundef 2.000000e+00) #13
  call void @dt_gui_gtk_set_source_rgb(ptr noundef %0, i32 noundef 29) #13
  call void @cairo_stroke_preserve(ptr noundef %0) #13
  call void @dt_gui_gtk_set_source_rgb(ptr noundef %0, i32 noundef 30) #13
  call void @cairo_fill(ptr noundef %0) #13
  call void @pango_font_description_free(ptr noundef %8) #13
  call void @g_object_unref(ptr noundef %16) #13
  call void @llvm.lifetime.end.p0(i64 16, ptr nonnull %4) #13
  ret void
}